target datalayout = "e-m:e-p270:32:32-p271:32:32-p272:64:64-i64:64-i128:128-f80:128-n8:16:32:64-S128"
target triple = "x86_64-pc-linux-gnu"

%struct.Kit_DsdObj_t_ = type { i32, [0 x i16] }
%struct.Kit_DsdNtk_t_ = type { i16, i16, i16, i16, ptr, ptr, ptr }

; Function Attrs: nounwind uwtable
define internal i32 @Abc_LitRegular(i32 noundef %0) #0 {
  %2 = alloca i32, align 4
  store i32 %0, ptr %2, align 4
  %3 = load i32, ptr %2, align 4
  %4 = and i32 %3, -2
  ret i32 %4
}

; Function Attrs: nounwind uwtable
define internal i32 @Abc_LitIsCompl(i32 noundef %0) #0 {
  %2 = alloca i32, align 4
  store i32 %0, ptr %2, align 4
  %3 = load i32, ptr %2, align 4
  %4 = and i32 %3, 1
  ret i32 %4
}

; Function Attrs: nounwind uwtable
define internal ptr @Kit_DsdNtkObj(ptr noundef %0, i32 noundef %1) #0 {
  %3 = alloca ptr, align 8
  %4 = alloca i32, align 4
  store ptr %0, ptr %3, align 8
  store i32 %1, ptr %4, align 4
  %5 = load i32, ptr %4, align 4
  %6 = load ptr, ptr %3, align 8
  %7 = getelementptr inbounds %struct.Kit_DsdNtk_t_, ptr %6, i32 0, i32 0
  %8 = load i16, ptr %7, align 8
  %9 = zext i16 %8 to i32
  %10 = icmp slt i32 %5, %9
  br i1 %10, label %11, label %12

11:                                               ; preds = %2
  br label %25

12:                                               ; preds = %2
  %13 = load ptr, ptr %3, align 8
  %14 = getelementptr inbounds %struct.Kit_DsdNtk_t_, ptr %13, i32 0, i32 6
  %15 = load ptr, ptr %14, align 8
  %16 = load i32, ptr %4, align 4
  %17 = load ptr, ptr %3, align 8
  %18 = getelementptr inbounds %struct.Kit_DsdNtk_t_, ptr %17, i32 0, i32 0
  %19 = load i16, ptr %18, align 8
  %20 = zext i16 %19 to i32
  %21 = sub nsw i32 %16, %20
  %22 = sext i32 %21 to i64
  %23 = getelementptr inbounds ptr, ptr %15, i64 %22
  %24 = load ptr, ptr %23, align 8
  br label %25

25:                                               ; preds = %12, %11
  %26 = phi ptr [ null, %11 ], [ %24, %12 ]
  ret ptr %26
}

; Function Attrs: nounwind uwtable
define internal i32 @Abc_Lit2Var(i32 noundef %0) #0 {
  %2 = alloca i32, align 4
  store i32 %0, ptr %2, align 4
  %3 = load i32, ptr %2, align 4
  %4 = ashr i32 %3, 1
  ret i32 %4
}

; Function Attrs: nounwind uwtable
define i32 @Amap_CreateCheckEqual_rec(ptr noundef %0, i32 noundef %1, i32 noundef %2) #0 {
  %4 = alloca i32, align 4
  %5 = alloca ptr, align 8
  %6 = alloca i32, align 4
  %7 = alloca i32, align 4
  %8 = alloca ptr, align 8
  %9 = alloca ptr, align 8
  %10 = alloca i32, align 4
  store ptr %0, ptr %5, align 8
  store i32 %1, ptr %6, align 4
  store i32 %2, ptr %7, align 4
  %11 = load ptr, ptr %5, align 8
  %12 = load i32, ptr %6, align 4
  %13 = call i32 @Abc_Lit2Var(i32 noundef %12)
  %14 = call ptr @Kit_DsdNtkObj(ptr noundef %11, i32 noundef %13)
  store ptr %14, ptr %8, align 8
  %15 = load ptr, ptr %5, align 8
  %16 = load i32, ptr %7, align 4
  %17 = call i32 @Abc_Lit2Var(i32 noundef %16)
  %18 = call ptr @Kit_DsdNtkObj(ptr noundef %15, i32 noundef %17)
  store ptr %18, ptr %9, align 8
  %19 = load ptr, ptr %8, align 8
  %20 = icmp eq ptr %19, null
  br i1 %20, label %21, label %25

21:                                               ; preds = %3
  %22 = load ptr, ptr %9, align 8
  %23 = icmp eq ptr %22, null
  br i1 %23, label %24, label %25

24:                                               ; preds = %21
  store i32 1, ptr %4, align 4
  br label %111

25:                                               ; preds = %21, %3
  %26 = load ptr, ptr %8, align 8
  %27 = icmp eq ptr %26, null
  br i1 %27, label %31, label %28

28:                                               ; preds = %25
  %29 = load ptr, ptr %9, align 8
  %30 = icmp eq ptr %29, null
  br i1 %30, label %31, label %32

31:                                               ; preds = %28, %25
  store i32 0, ptr %4, align 4
  br label %111

32:                                               ; preds = %28
  %33 = load ptr, ptr %8, align 8
  %34 = load i32, ptr %33, align 4
  %35 = lshr i32 %34, 6
  %36 = and i32 %35, 7
  %37 = load ptr, ptr %9, align 8
  %38 = load i32, ptr %37, align 4
  %39 = lshr i32 %38, 6
  %40 = and i32 %39, 7
  %41 = icmp ne i32 %36, %40
  br i1 %41, label %42, label %43

42:                                               ; preds = %32
  store i32 0, ptr %4, align 4
  br label %111

43:                                               ; preds = %32
  %44 = load ptr, ptr %8, align 8
  %45 = load i32, ptr %44, align 4
  %46 = lshr i32 %45, 26
  %47 = load ptr, ptr %9, align 8
  %48 = load i32, ptr %47, align 4
  %49 = lshr i32 %48, 26
  %50 = icmp ne i32 %46, %49
  br i1 %50, label %51, label %52

51:                                               ; preds = %43
  store i32 0, ptr %4, align 4
  br label %111

52:                                               ; preds = %43
  %53 = load ptr, ptr %8, align 8
  %54 = load i32, ptr %53, align 4
  %55 = lshr i32 %54, 6
  %56 = and i32 %55, 7
  %57 = icmp eq i32 %56, 5
  br i1 %57, label %58, label %59

58:                                               ; preds = %52
  store i32 0, ptr %4, align 4
  br label %111

59:                                               ; preds = %52
  store i32 0, ptr %10, align 4
  br label %60

60:                                               ; preds = %107, %59
  %61 = load i32, ptr %10, align 4
  %62 = load ptr, ptr %8, align 8
  %63 = load i32, ptr %62, align 4
  %64 = lshr i32 %63, 26
  %65 = icmp slt i32 %61, %64
  br i1 %65, label %66, label %110

66:                                               ; preds = %60
  %67 = load ptr, ptr %8, align 8
  %68 = getelementptr inbounds %struct.Kit_DsdObj_t_, ptr %67, i32 0, i32 1
  %69 = load i32, ptr %10, align 4
  %70 = sext i32 %69 to i64
  %71 = getelementptr inbounds [0 x i16], ptr %68, i64 0, i64 %70
  %72 = load i16, ptr %71, align 2
  %73 = zext i16 %72 to i32
  %74 = call i32 @Abc_LitIsCompl(i32 noundef %73)
  %75 = load ptr, ptr %9, align 8
  %76 = getelementptr inbounds %struct.Kit_DsdObj_t_, ptr %75, i32 0, i32 1
  %77 = load i32, ptr %10, align 4
  %78 = sext i32 %77 to i64
  %79 = getelementptr inbounds [0 x i16], ptr %76, i64 0, i64 %78
  %80 = load i16, ptr %79, align 2
  %81 = zext i16 %80 to i32
  %82 = call i32 @Abc_LitIsCompl(i32 noundef %81)
  %83 = icmp ne i32 %74, %82
  br i1 %83, label %84, label %85

84:                                               ; preds = %66
  store i32 0, ptr %4, align 4
  br label %111

85:                                               ; preds = %66
  %86 = load ptr, ptr %5, align 8
  %87 = load ptr, ptr %8, align 8
  %88 = getelementptr inbounds %struct.Kit_DsdObj_t_, ptr %87, i32 0, i32 1
  %89 = load i32, ptr %10, align 4
  %90 = sext i32 %89 to i64
  %91 = getelementptr inbounds [0 x i16], ptr %88, i64 0, i64 %90
  %92 = load i16, ptr %91, align 2
  %93 = zext i16 %92 to i32
  %94 = call i32 @Abc_LitRegular(i32 noundef %93)
  %95 = load ptr, ptr %9, align 8
  %96 = getelementptr inbounds %struct.Kit_DsdObj_t_, ptr %95, i32 0, i32 1
  %97 = load i32, ptr %10, align 4
  %98 = sext i32 %97 to i64
  %99 = getelementptr inbounds [0 x i16], ptr %96, i64 0, i64 %98
  %100 = load i16, ptr %99, align 2
  %101 = zext i16 %100 to i32
  %102 = call i32 @Abc_LitRegular(i32 noundef %101)
  %103 = call i32 @Amap_CreateCheckEqual_rec(ptr noundef %86, i32 noundef %94, i32 noundef %102)
  %104 = icmp ne i32 %103, 0
  br i1 %104, label %106, label %105

105:                                              ; preds = %85
  store i32 0, ptr %4, align 4
  br label %111

106:                                              ; preds = %85
  br label %107

107:                                              ; preds = %106
  %108 = load i32, ptr %10, align 4
  %109 = add nsw i32 %108, 1
  store i32 %109, ptr %10, align 4
  br label %60, !llvm.loop !22

110:                                              ; preds = %60
  store i32 1, ptr %4, align 4
  br label %111

111:                                              ; preds = %110, %105, %84, %58, %51, %42, %31, %24
  %112 = load i32, ptr %4, align 4
  ret i32 %112
}