; Function Attrs: nofree nosync nounwind memory(read, inaccessiblemem: none) uwtable
define range(i32 0, 2) i32 @Amap_CreateCheckEqual_rec(ptr noundef readonly captures(none) %0, i32 noundef %1, i32 noundef %2) local_unnamed_addr #3 {
  %4 = ashr i32 %1, 1
  %5 = load i16, ptr %0, align 8
  %6 = zext i16 %5 to i32
  %7 = icmp slt i32 %4, %6
  br i1 %7, label %Kit_DsdNtkObj.exit, label %8

8:                                                ; preds = %3
  %9 = getelementptr inbounds nuw i8, ptr %0, i64 24
  %10 = load ptr, ptr %9, align 8
  %11 = sub nsw i32 %4, %6
  %12 = sext i32 %11 to i64
  %13 = getelementptr inbounds ptr, ptr %10, i64 %12
  %14 = load ptr, ptr %13, align 8
  br label %Kit_DsdNtkObj.exit

Kit_DsdNtkObj.exit:                               ; preds = %3, %8
  %15 = phi ptr [ %14, %8 ], [ null, %3 ]
  %16 = ashr i32 %2, 1
  %17 = icmp slt i32 %16, %6
  br i1 %17, label %Kit_DsdNtkObj.exit37, label %18

18:                                               ; preds = %Kit_DsdNtkObj.exit
  %19 = getelementptr inbounds nuw i8, ptr %0, i64 24
  %20 = load ptr, ptr %19, align 8
  %21 = sub nsw i32 %16, %6
  %22 = sext i32 %21 to i64
  %23 = getelementptr inbounds ptr, ptr %20, i64 %22
  %24 = load ptr, ptr %23, align 8
  br label %Kit_DsdNtkObj.exit37

Kit_DsdNtkObj.exit37:                             ; preds = %Kit_DsdNtkObj.exit, %18
  %25 = phi ptr [ %24, %18 ], [ null, %Kit_DsdNtkObj.exit ]
  %26 = icmp eq ptr %15, null
  %27 = icmp eq ptr %25, null
  %or.cond = select i1 %26, i1 %27, i1 false
  br i1 %or.cond, label %.loopexit, label %28

28:                                               ; preds = %Kit_DsdNtkObj.exit37
  %or.cond3 = select i1 %26, i1 true, i1 %27
  br i1 %or.cond3, label %.loopexit, label %29

29:                                               ; preds = %28
  %30 = load i32, ptr %15, align 4
  %31 = lshr i32 %30, 6
  %32 = and i32 %31, 7
  %33 = load i32, ptr %25, align 4
  %34 = lshr i32 %33, 6
  %35 = and i32 %34, 7
  %.not = icmp ne i32 %32, %35
  %.not32.unshifted = xor i32 %33, %30
  %.not32 = icmp ugt i32 %.not32.unshifted, 67108863
  %or.cond35.not38 = or i1 %.not32, %.not
  %36 = icmp eq i32 %32, 5
  %or.cond36 = or i1 %36, %or.cond35.not38
  br i1 %or.cond36, label %.loopexit, label %.preheader

.preheader:                                       ; preds = %29
  %37 = getelementptr inbounds nuw i8, ptr %15, i64 4
  %.not44 = icmp ult i32 %30, 67108864
  br i1 %.not44, label %.loopexit, label %.lr.ph

.lr.ph:                                           ; preds = %.preheader
  %38 = lshr i32 %30, 26
  %39 = getelementptr inbounds nuw i8, ptr %25, i64 4
  %wide.trip.count = zext nneg i32 %38 to i64
  br label %41

40:                                               ; preds = %50
  %indvars.iv.next = add nuw nsw i64 %indvars.iv, 1
  %exitcond.not = icmp eq i64 %indvars.iv.next, %wide.trip.count
  br i1 %exitcond.not, label %.loopexit, label %41, !llvm.loop !22

41:                                               ; preds = %.lr.ph, %40
  %indvars.iv = phi i64 [ 0, %.lr.ph ], [ %indvars.iv.next, %40 ]
  %42 = getelementptr inbounds nuw [0 x i16], ptr %37, i64 0, i64 %indvars.iv
  %43 = load i16, ptr %42, align 2
  %44 = zext i16 %43 to i32
  %45 = getelementptr inbounds nuw [0 x i16], ptr %39, i64 0, i64 %indvars.iv
  %46 = load i16, ptr %45, align 2
  %47 = zext i16 %46 to i32
  %48 = xor i32 %47, %44
  %49 = and i32 %48, 1
  %.not33 = icmp eq i32 %49, 0
  br i1 %.not33, label %50, label %.loopexit

50:                                               ; preds = %41
  %51 = and i32 %44, 65534
  %52 = and i32 %47, 65534
  %53 = tail call i32 @Amap_CreateCheckEqual_rec(ptr noundef nonnull %0, i32 noundef %51, i32 noundef %52)
  %.not34 = icmp eq i32 %53, 0
  br i1 %.not34, label %.loopexit, label %40

.loopexit:                                        ; preds = %41, %50, %40, %.preheader, %29, %28, %Kit_DsdNtkObj.exit37
  %.028 = phi i32 [ 1, %Kit_DsdNtkObj.exit37 ], [ 0, %28 ], [ 0, %29 ], [ 1, %.preheader ], [ 0, %41 ], [ 0, %50 ], [ 1, %40 ]
  ret i32 %.028
}